(lp0
L37107287533902102798797998220837590246510135740250L
aL46376937677490009712648124896970078050417018260538L
aL74324986199524741059474233309513058123726617309629L
aL91942213363574161572522430563301811072406154908250L
aL23067588207539346171171980310421047513778063246676L
aL89261670696623633820136378418383684178734361726757L
aL28112879812849979408065481931592621691275889832738L
aL44274228917432520321923589422876796487670272189318L
aL47451445736001306439091167216856844588711603153276L
aL70386486105843025439939619828917593665686757934951L
aL62176457141856560629502157223196586755079324193331L
aL64906352462741904929101432445813822663347944758178L
aL92575867718337217661963751590579239728245598838407L
aL58203565325359399008402633568948830189458628227828L
aL80181199384826282014278194139940567587151170094390L
aL35398664372827112653829987240784473053190104293586L
aL86515506006295864861532075273371959191420517255829L
aL71693888707715466499115593487603532921714970056938L
aL54370070576826684624621495650076471787294438377604L
aL53282654108756828443191190634694037855217779295145L
aL36123272525000296071075082563815656710885258350721L
aL45876576172410976447339110607218265236877223636045L
aL17423706905851860660448207621209813287860733969412L
aL81142660418086830619328460811191061556940512689692L
aL51934325451728388641918047049293215058642563049483L
aL62467221648435076201727918039944693004732956340691L
aL15732444386908125794514089057706229429197107928209L
aL55037687525678773091862540744969844508330393682126L
aL18336384825330154686196124348767681297534375946515L
aL80386287592878490201521685554828717201219257766954L
aL78182833757993103614740356856449095527097864797581L
aL16726320100436897842553539920931837441497806860984L
aL48403098129077791799088218795327364475675590848030L
aL87086987551392711854517078544161852424320693150332L
aL59959406895756536782107074926966537676326235447210L
aL69793950679652694742597709739166693763042633987085L
aL41052684708299085211399427365734116182760315001271L
aL65378607361501080857009149939512557028198746004375L
aL35829035317434717326932123578154982629742552737307L
aL94953759765105305946966067683156574377167401875275L
aL88902802571733229619176668713819931811048770190271L
aL25267680276078003013678680992525463401061632866526L
aL36270218540497705585629946580636237993140746255962L
aL24074486908231174977792365466257246923322810917141L
aL91430288197103288597806669760892938638285025333403L
aL34413065578016127815921815005561868836468420090470L
aL23053081172816430487623791969842487255036638784583L
aL11487696932154902810424020138335124462181441773470L
aL63783299490636259666498587618221225225512486764533L
aL67720186971698544312419572409913959008952310058822L
aL95548255300263520781532296796249481641953868218774L
aL76085327132285723110424803456124867697064507995236L
aL37774242535411291684276865538926205024910326572967L
aL23701913275725675285653248258265463092207058596522L
aL29798860272258331913126375147341994889534765745501L
aL18495701454879288984856827726077713721403798879715L
aL38298203783031473527721580348144513491373226651381L
aL34829543829199918180278916522431027392251122869539L
aL40957953066405232632538044100059654939159879593635L
aL29746152185502371307642255121183693803580388584903L
aL41698116222072977186158236678424689157993532961922L
aL62467957194401269043877107275048102390895523597457L
aL23189706772547915061505504953922979530901129967519L
aL86188088225875314529584099251203829009407770775672L
aL11306739708304724483816533873502340845647058077308L
aL82959174767140363198008187129011875491310547126581L
aL97623331044818386269515456334926366572897563400500L
aL42846280183517070527831839425882145521227251250327L
aL55121603546981200581762165212827652751691296897789L
aL32238195734329339946437501907836945765883352399886L
aL75506164965184775180738168837861091527357929701337L
aL62177842752192623401942399639168044983993173312731L
aL32924185707147349566916674687634660915035914677504L
aL99518671430235219628894890102423325116913619626622L
aL73267460800591547471830798392868535206946944540724L
aL76841822524674417161514036427982273348055556214818L
aL97142617910342598647204516893989422179826088076852L
aL87783646182799346313767754307809363333018982642090L
aL10848802521674670883215120185883543223812876952786L
aL71329612474782464538636993009049310363619763878039L
aL62184073572399794223406235393808339651327408011116L
aL66627891981488087797941876876144230030984490851411L
aL60661826293682836764744779239180335110989069790714L
aL85786944089552990653640447425576083659976645795096L
aL66024396409905389607120198219976047599490197230297L
aL64913982680032973156037120041377903785566085089252L
aL16730939319872750275468906903707539413042652315011L
aL94809377245048795150954100921645863754710598436791L
aL78639167021187492431995700641917969777599028300699L
aL15368713711936614952811305876380278410754449733078L
aL40789923115535562561142322423255033685442488917353L
aL44889911501440648020369068063960672322193204149535L
aL41503128880339536053299340368006977710650566631954L
aL81234880673210146739058568557934581403627822703280L
aL82616570773948327592232845941706525094512325230608L
aL22918802058777319719839450180888072429661980811197L
aL77158542502016545090413245809786882778948721859617L
aL72107838435069186155435662884062257473692284509516L
aL20849603980134001723930671666823555245252804609722L
aL53503534226472524250874054075591789781264330331690L
a.